; Function Attrs: nounwind uwtable
define internal ptr @_codecs_latin_1_decode(ptr readnone captures(none) %0, ptr noundef readonly captures(none) %1, i64 noundef %2) #0 {
  %4 = alloca %struct.Py_buffer, align 8
  %5 = alloca i64, align 8
  call void @llvm.lifetime.start.p0(i64 80, ptr nonnull %4) #5
  call void @llvm.memset.p0.i64(ptr noundef nonnull align 8 dereferenceable(80) %4, i8 0, i64 80, i1 false)
  %6 = add i64 %2, -1
  %or.cond = icmp ult i64 %6, 2
  br i1 %or.cond, label %9, label %7

7:                                                ; preds = %3
  %8 = tail call i32 @_PyArg_CheckPositional(ptr noundef nonnull @.str.31, i64 noundef %2, i64 noundef 1, i64 noundef 2) #5
  %.not = icmp eq i32 %8, 0
  br i1 %.not, label %_codecs_latin_1_decode_impl.exit, label %9

9:                                                ; preds = %3, %7
  %10 = load ptr, ptr %1, align 8, !tbaa !22
  %11 = call i32 @PyObject_GetBuffer(ptr noundef %10, ptr noundef nonnull %4, i32 noundef 0) #5
  %.not21 = icmp eq i32 %11, 0
  br i1 %.not21, label %12, label %_codecs_latin_1_decode_impl.exit

12:                                               ; preds = %9
  %13 = icmp slt i64 %2, 2
  br i1 %13, label %32, label %14

14:                                               ; preds = %12
  %15 = getelementptr i8, ptr %1, i64 8
  %16 = load ptr, ptr %15, align 8, !tbaa !22
  %17 = icmp eq ptr %16, @_Py_NoneStruct
  br i1 %17, label %32, label %18

18:                                               ; preds = %14
  %19 = getelementptr i8, ptr %16, i64 8
  %.val = load ptr, ptr %19, align 8, !tbaa !4
  %20 = getelementptr i8, ptr %.val, i64 168
  %.val26 = load i64, ptr %20, align 8, !tbaa !10
  %21 = and i64 %.val26, 268435456
  %.not22 = icmp eq i64 %21, 0
  br i1 %.not22, label %31, label %22

22:                                               ; preds = %18
  call void @llvm.lifetime.start.p0(i64 8, ptr nonnull %5) #5
  %23 = call ptr @PyUnicode_AsUTF8AndSize(ptr noundef %16, ptr noundef nonnull %5) #5
  %24 = icmp eq ptr %23, null
  br i1 %24, label %.thread, label %25

25:                                               ; preds = %22
  %26 = call i64 @strlen(ptr noundef nonnull dereferenceable(1) %23) #6
  %27 = load i64, ptr %5, align 8, !tbaa !21
  %.not23 = icmp eq i64 %26, %27
  br i1 %.not23, label %30, label %28

28:                                               ; preds = %25
  %29 = load ptr, ptr @PyExc_ValueError, align 8, !tbaa !22
  call void @PyErr_SetString(ptr noundef %29, ptr noundef nonnull @.str.44) #5
  br label %.thread

.thread:                                          ; preds = %28, %22
  call void @llvm.lifetime.end.p0(i64 8, ptr nonnull %5) #5
  br label %_codecs_latin_1_decode_impl.exit

30:                                               ; preds = %25
  call void @llvm.lifetime.end.p0(i64 8, ptr nonnull %5) #5
  br label %32

31:                                               ; preds = %18
  call void @_PyArg_BadArgument(ptr noundef nonnull @.str.31, ptr noundef nonnull @.str.52, ptr noundef nonnull @.str.53, ptr noundef %16) #5
  br label %_codecs_latin_1_decode_impl.exit

32:                                               ; preds = %30, %14, %12
  %.016 = phi ptr [ null, %12 ], [ %23, %30 ], [ null, %14 ]
  %33 = load ptr, ptr %4, align 8, !tbaa !28
  %34 = getelementptr inbounds nuw i8, ptr %4, i64 16
  %35 = load i64, ptr %34, align 8, !tbaa !31
  %36 = call ptr @PyUnicode_DecodeLatin1(ptr noundef %33, i64 noundef %35, ptr noundef %.016) #5
  %37 = icmp eq ptr %36, null
  br i1 %37, label %_codecs_latin_1_decode_impl.exit, label %38

38:                                               ; preds = %32
  %39 = load i64, ptr %34, align 8, !tbaa !31
  %40 = call ptr (ptr, ...) @Py_BuildValue(ptr noundef nonnull @.str.55, ptr noundef nonnull %36, i64 noundef %39) #5
  br label %_codecs_latin_1_decode_impl.exit

_codecs_latin_1_decode_impl.exit:                 ; preds = %38, %32, %.thread, %9, %7, %31
  %.017 = phi ptr [ null, %9 ], [ null, %31 ], [ null, %7 ], [ null, %.thread ], [ %40, %38 ], [ null, %32 ]
  %41 = getelementptr inbounds nuw i8, ptr %4, i64 8
  %42 = load ptr, ptr %41, align 8, !tbaa !32
  %.not24 = icmp eq ptr %42, null
  br i1 %.not24, label %44, label %43

43:                                               ; preds = %_codecs_latin_1_decode_impl.exit
  call void @PyBuffer_Release(ptr noundef nonnull %4) #5
  br label %44

44:                                               ; preds = %_codecs_latin_1_decode_impl.exit, %43
  call void @llvm.lifetime.end.p0(i64 80, ptr nonnull %4) #5
  ret ptr %.017
}